target datalayout = "e-m:e-p270:32:32-p271:32:32-p272:64:64-i64:64-i128:128-f80:128-n8:16:32:64-S128"
target triple = "x86_64-pc-linux-gnu"

%struct.HashMetaPageData = type { i32, i32, double, i16, i16, i16, i16, i32, i32, i32, i32, i32, i32, i32, [98 x i32], [1024 x i32] }

@.str = private unnamed_addr constant [33 x i8] c"invalid overflow block number %u\00", align 1
@.str.1 = private unnamed_addr constant [11 x i8] c"hashovfl.c\00", align 1
@__func__._hash_ovflblkno_to_bitno = private unnamed_addr constant [25 x i8] c"_hash_ovflblkno_to_bitno\00", align 1

; Function Attrs: nounwind uwtable
define dso_local i32 @_hash_ovflblkno_to_bitno(ptr noundef %0, i32 noundef %1) #0 {
  %3 = alloca i32, align 4
  %4 = alloca ptr, align 8
  %5 = alloca i32, align 4
  %6 = alloca i32, align 4
  %7 = alloca i32, align 4
  %8 = alloca i32, align 4
  %9 = alloca i32, align 4
  store ptr %0, ptr %4, align 8
  store i32 %1, ptr %5, align 4
  call void @llvm.lifetime.start.p0(i64 4, ptr %6) #6
  %10 = load ptr, ptr %4, align 8
  %11 = getelementptr inbounds nuw %struct.HashMetaPageData, ptr %10, i32 0, i32 10
  %12 = load i32, ptr %11, align 4
  store i32 %12, ptr %6, align 4
  call void @llvm.lifetime.start.p0(i64 4, ptr %7) #6
  call void @llvm.lifetime.start.p0(i64 4, ptr %8) #6
  store i32 1, ptr %7, align 4
  br label %13

13:                                               ; preds = %50, %2
  %14 = load i32, ptr %7, align 4
  %15 = load i32, ptr %6, align 4
  %16 = icmp ule i32 %14, %15
  br i1 %16, label %17, label %53

17:                                               ; preds = %13
  %18 = load i32, ptr %5, align 4
  %19 = load i32, ptr %7, align 4
  %20 = call i32 @_hash_get_totalbuckets(i32 noundef %19)
  %21 = icmp ule i32 %18, %20
  br i1 %21, label %22, label %23

22:                                               ; preds = %17
  br label %53

23:                                               ; preds = %17
  %24 = load i32, ptr %5, align 4
  %25 = load i32, ptr %7, align 4
  %26 = call i32 @_hash_get_totalbuckets(i32 noundef %25)
  %27 = sub i32 %24, %26
  store i32 %27, ptr %8, align 4
  %28 = load i32, ptr %8, align 4
  %29 = load ptr, ptr %4, align 8
  %30 = getelementptr inbounds nuw %struct.HashMetaPageData, ptr %29, i32 0, i32 14
  %31 = load i32, ptr %7, align 4
  %32 = sub i32 %31, 1
  %33 = zext i32 %32 to i64
  %34 = getelementptr inbounds nuw [98 x i32], ptr %30, i64 0, i64 %33
  %35 = load i32, ptr %34, align 4
  %36 = icmp ugt i32 %28, %35
  br i1 %36, label %37, label %49

37:                                               ; preds = %23
  %38 = load i32, ptr %8, align 4
  %39 = load ptr, ptr %4, align 8
  %40 = getelementptr inbounds nuw %struct.HashMetaPageData, ptr %39, i32 0, i32 14
  %41 = load i32, ptr %7, align 4
  %42 = zext i32 %41 to i64
  %43 = getelementptr inbounds nuw [98 x i32], ptr %40, i64 0, i64 %42
  %44 = load i32, ptr %43, align 4
  %45 = icmp ule i32 %38, %44
  br i1 %45, label %46, label %49

46:                                               ; preds = %37
  %47 = load i32, ptr %8, align 4
  %48 = sub i32 %47, 1
  store i32 %48, ptr %3, align 4
  store i32 1, ptr %9, align 4
  br label %66

49:                                               ; preds = %37, %23
  br label %50

50:                                               ; preds = %49
  %51 = load i32, ptr %7, align 4
  %52 = add i32 %51, 1
  store i32 %52, ptr %7, align 4
  br label %13, !llvm.loop !4

53:                                               ; preds = %22, %13
  br label %54

54:                                               ; preds = %53
  br i1 true, label %55, label %57

55:                                               ; preds = %54
  %56 = call zeroext i1 @errstart_cold(i32 noundef 21, ptr noundef null) #7
  br i1 %56, label %59, label %63

57:                                               ; preds = %54
  %58 = call zeroext i1 @errstart(i32 noundef 21, ptr noundef null)
  br i1 %58, label %59, label %63

59:                                               ; preds = %57, %55
  %60 = call i32 @errcode(i32 noundef 50856066)
  %61 = load i32, ptr %5, align 4
  %62 = call i32 (ptr, ...) @errmsg(ptr noundef @.str, i32 noundef %61)
  call void @errfinish(ptr noundef @.str.1, i32 noundef 88, ptr noundef @__func__._hash_ovflblkno_to_bitno)
  br label %63

63:                                               ; preds = %59, %57, %55
  unreachable

64:                                               ; No predecessors!
  br label %65

65:                                               ; preds = %64
  store i32 0, ptr %3, align 4
  store i32 1, ptr %9, align 4
  br label %66

66:                                               ; preds = %65, %46
  call void @llvm.lifetime.end.p0(i64 4, ptr %8) #6
  call void @llvm.lifetime.end.p0(i64 4, ptr %7) #6
  call void @llvm.lifetime.end.p0(i64 4, ptr %6) #6
  %67 = load i32, ptr %3, align 4
  ret i32 %67
}