; Function Attrs: nounwind uwtable
define dso_local range(i32 0, -1) i32 @_hash_ovflblkno_to_bitno(ptr noundef readonly captures(none) %0, i32 noundef %1) local_unnamed_addr #0 {
  %3 = getelementptr inbounds nuw i8, ptr %0, i64 36
  %4 = load i32, ptr %3, align 4
  %.not20 = icmp eq i32 %4, 0
  br i1 %.not20, label %._crit_edge, label %.lr.ph

.lr.ph:                                           ; preds = %2
  %5 = getelementptr inbounds nuw i8, ptr %0, i64 52
  br label %6

6:                                                ; preds = %.lr.ph, %22
  %.021 = phi i32 [ 1, %.lr.ph ], [ %23, %22 ]
  %7 = tail call i32 @_hash_get_totalbuckets(i32 noundef %.021) #7
  %.not18 = icmp ugt i32 %1, %7
  br i1 %.not18, label %8, label %._crit_edge

8:                                                ; preds = %6
  %9 = tail call i32 @_hash_get_totalbuckets(i32 noundef %.021) #7
  %10 = sub i32 %1, %9
  %11 = add i32 %.021, -1
  %12 = zext i32 %11 to i64
  %13 = getelementptr inbounds nuw [98 x i32], ptr %5, i64 0, i64 %12
  %14 = load i32, ptr %13, align 4
  %15 = icmp ugt i32 %10, %14
  br i1 %15, label %16, label %22

16:                                               ; preds = %8
  %17 = zext i32 %.021 to i64
  %18 = getelementptr inbounds nuw [98 x i32], ptr %5, i64 0, i64 %17
  %19 = load i32, ptr %18, align 4
  %.not19 = icmp ugt i32 %10, %19
  br i1 %.not19, label %22, label %20

20:                                               ; preds = %16
  %21 = add i32 %10, -1
  ret i32 %21

22:                                               ; preds = %8, %16
  %23 = add i32 %.021, 1
  %.not = icmp ugt i32 %23, %4
  br i1 %.not, label %._crit_edge, label %6, !llvm.loop !4

._crit_edge:                                      ; preds = %22, %6, %2
  %24 = tail call zeroext i1 @errstart_cold(i32 noundef 21, ptr noundef null) #8
  tail call void @llvm.assume(i1 %24)
  %25 = tail call i32 @errcode(i32 noundef 50856066) #7
  %26 = tail call i32 (ptr, ...) @errmsg(ptr noundef nonnull @.str, i32 noundef %1) #7
  tail call void @errfinish(ptr noundef nonnull @.str.1, i32 noundef 88, ptr noundef nonnull @__func__._hash_ovflblkno_to_bitno) #7
  unreachable
}